target datalayout = "e-m:e-p270:32:32-p271:32:32-p272:64:64-i64:64-i128:128-f80:128-n8:16:32:64-S128"
target triple = "x86_64-pc-linux-gnu"

%struct.decay_s = type { %struct.malloc_mutex_s, i8, %struct.atomic_zd_t, %struct.nstime_t, %struct.nstime_t, i64, %struct.nstime_t, i64, i64, [200 x i64], i64 }
%struct.malloc_mutex_s = type { %union.anon }
%union.anon = type { %struct.anon }
%struct.anon = type { %struct.mutex_prof_data_t, %struct.atomic_b_t, %union.pthread_mutex_t }
%struct.mutex_prof_data_t = type { %struct.nstime_t, %struct.nstime_t, i64, i64, i32, %struct.atomic_u32_t, i64, ptr, i64 }
%struct.atomic_u32_t = type { i32 }
%struct.atomic_b_t = type { i8 }
%union.pthread_mutex_t = type { %struct.__pthread_mutex_s }
%struct.__pthread_mutex_s = type { i32, i32, i32, i32, i32, i16, i16, %struct.__pthread_internal_list }
%struct.__pthread_internal_list = type { ptr, ptr }
%struct.atomic_zd_t = type { i64 }
%struct.nstime_t = type { i64 }

; Function Attrs: inlinehint nounwind uwtable
define internal i32 @fls_lu(i64 noundef %0) #5 {
  %2 = alloca i64, align 8
  store i64 %0, ptr %2, align 8, !tbaa !9
  %3 = load i64, ptr %2, align 8, !tbaa !9
  %4 = icmp ne i64 %3, 0
  call void @llvm.assume(i1 %4)
  %5 = load i64, ptr %2, align 8, !tbaa !9
  %6 = call i64 @llvm.ctlz.i64(i64 %5, i1 true)
  %7 = trunc i64 %6 to i32
  %8 = sext i32 %7 to i64
  %9 = xor i64 63, %8
  %10 = trunc i64 %9 to i32
  ret i32 %10
}

; Function Attrs: alwaysinline nounwind uwtable
define internal i64 @prng_state_next_u64(i64 noundef %0) #1 {
  %2 = alloca i64, align 8
  store i64 %0, ptr %2, align 8, !tbaa !9
  %3 = load i64, ptr %2, align 8, !tbaa !9
  %4 = mul i64 %3, 6364136223846793005
  %5 = add i64 %4, 1442695040888963407
  ret i64 %5
}

; Function Attrs: inlinehint nounwind uwtable
define internal i32 @ffs_lu(i64 noundef %0) #5 {
  %2 = alloca i64, align 8
  store i64 %0, ptr %2, align 8, !tbaa !9
  %3 = load i64, ptr %2, align 8, !tbaa !9
  %4 = icmp ne i64 %3, 0
  call void @llvm.assume(i1 %4)
  %5 = load i64, ptr %2, align 8, !tbaa !9
  %6 = call i64 @llvm.cttz.i64(i64 %5, i1 true)
  %7 = add i64 %6, 1
  %8 = icmp eq i64 %5, 0
  %9 = select i1 %8, i64 0, i64 %7
  %10 = trunc i64 %9 to i32
  %11 = sub nsw i32 %10, 1
  ret i32 %11
}

; Function Attrs: inlinehint nounwind uwtable
define internal i32 @fls_u64(i64 noundef %0) #5 {
  %2 = alloca i64, align 8
  store i64 %0, ptr %2, align 8, !tbaa !9
  %3 = load i64, ptr %2, align 8, !tbaa !9
  %4 = call i32 @fls_lu(i64 noundef %3)
  ret i32 %4
}

; Function Attrs: alwaysinline nounwind uwtable
define internal i32 @atomic_enum_to_builtin(i32 noundef %0) #1 {
  %2 = alloca i32, align 4
  %3 = alloca i32, align 4
  store i32 %0, ptr %3, align 4, !tbaa !17
  %4 = load i32, ptr %3, align 4, !tbaa !17
  switch i32 %4, label %10 [
    i32 0, label %5
    i32 1, label %6
    i32 2, label %7
    i32 3, label %8
    i32 4, label %9
  ]

5:                                                ; preds = %1
  store i32 0, ptr %2, align 4
  br label %12

6:                                                ; preds = %1
  store i32 2, ptr %2, align 4
  br label %12

7:                                                ; preds = %1
  store i32 3, ptr %2, align 4
  br label %12

8:                                                ; preds = %1
  store i32 4, ptr %2, align 4
  br label %12

9:                                                ; preds = %1
  store i32 5, ptr %2, align 4
  br label %12

10:                                               ; preds = %1
  br label %11

11:                                               ; preds = %10
  unreachable

12:                                               ; preds = %5, %6, %7, %8, %9
  %13 = load i32, ptr %2, align 4
  ret i32 %13
}

; Function Attrs: alwaysinline nounwind uwtable
define internal i64 @prng_lg_range_u64(ptr noundef %0, i32 noundef %1) #1 {
  %3 = alloca ptr, align 8
  %4 = alloca i32, align 4
  %5 = alloca i64, align 8
  store ptr %0, ptr %3, align 8, !tbaa !21
  store i32 %1, ptr %4, align 4, !tbaa !17
  br label %6

6:                                                ; preds = %2
  br label %7

7:                                                ; preds = %6
  br label %8

8:                                                ; preds = %7
  br label %9

9:                                                ; preds = %8
  %10 = load ptr, ptr %3, align 8, !tbaa !21
  %11 = load i64, ptr %10, align 8, !tbaa !9
  %12 = call i64 @prng_state_next_u64(i64 noundef %11)
  %13 = load ptr, ptr %3, align 8, !tbaa !21
  store i64 %12, ptr %13, align 8, !tbaa !9
  call void @llvm.lifetime.start.p0(i64 8, ptr %5) #10
  %14 = load ptr, ptr %3, align 8, !tbaa !21
  %15 = load i64, ptr %14, align 8, !tbaa !9
  %16 = load i32, ptr %4, align 4, !tbaa !17
  %17 = sub i32 64, %16
  %18 = zext i32 %17 to i64
  %19 = lshr i64 %15, %18
  store i64 %19, ptr %5, align 8, !tbaa !9
  %20 = load i64, ptr %5, align 8, !tbaa !9
  call void @llvm.lifetime.end.p0(i64 8, ptr %5) #10
  ret i64 %20
}

; Function Attrs: inlinehint nounwind uwtable
define internal i32 @ffs_u64(i64 noundef %0) #5 {
  %2 = alloca i64, align 8
  store i64 %0, ptr %2, align 8, !tbaa !9
  %3 = load i64, ptr %2, align 8, !tbaa !9
  %4 = call i32 @ffs_lu(i64 noundef %3)
  ret i32 %4
}

; Function Attrs: inlinehint nounwind uwtable
define internal i64 @pow2_ceil_u64(i64 noundef %0) #5 {
  %2 = alloca i64, align 8
  %3 = alloca i64, align 8
  %4 = alloca i64, align 8
  store i64 %0, ptr %3, align 8, !tbaa !9
  %5 = load i64, ptr %3, align 8, !tbaa !9
  %6 = icmp ule i64 %5, 1
  %7 = xor i1 %6, true
  %8 = xor i1 %7, true
  %9 = zext i1 %8 to i32
  %10 = sext i32 %9 to i64
  %11 = call i64 @llvm.expect.i64(i64 %10, i64 0)
  %12 = icmp ne i64 %11, 0
  br i1 %12, label %13, label %15

13:                                               ; preds = %1
  %14 = load i64, ptr %3, align 8, !tbaa !9
  store i64 %14, ptr %2, align 8
  br label %26

15:                                               ; preds = %1
  call void @llvm.lifetime.start.p0(i64 8, ptr %4) #10
  %16 = load i64, ptr %3, align 8, !tbaa !9
  %17 = sub i64 %16, 1
  %18 = call i32 @fls_u64(i64 noundef %17)
  %19 = zext i32 %18 to i64
  store i64 %19, ptr %4, align 8, !tbaa !9
  br label %20

20:                                               ; preds = %15
  br label %21

21:                                               ; preds = %20
  br label %22

22:                                               ; preds = %21
  %23 = load i64, ptr %4, align 8, !tbaa !9
  %24 = add i64 %23, 1
  %25 = shl i64 1, %24
  store i64 %25, ptr %2, align 8
  call void @llvm.lifetime.end.p0(i64 8, ptr %4) #10
  br label %26

26:                                               ; preds = %22, %13
  %27 = load i64, ptr %2, align 8
  ret i64 %27
}

; Function Attrs: alwaysinline nounwind uwtable
define internal i64 @atomic_load_zd(ptr noundef %0, i32 noundef %1) #1 {
  %3 = alloca ptr, align 8
  %4 = alloca i32, align 4
  %5 = alloca i64, align 8
  store ptr %0, ptr %3, align 8, !tbaa !8
  store i32 %1, ptr %4, align 4, !tbaa !17
  call void @llvm.lifetime.start.p0(i64 8, ptr %5) #10
  %6 = load ptr, ptr %3, align 8, !tbaa !8
  %7 = getelementptr inbounds nuw %struct.atomic_zd_t, ptr %6, i32 0, i32 0
  %8 = load i32, ptr %4, align 4, !tbaa !17
  %9 = call i32 @atomic_enum_to_builtin(i32 noundef %8)
  switch i32 %9, label %10 [
    i32 1, label %12
    i32 2, label %12
    i32 5, label %14
  ]

10:                                               ; preds = %2
  %11 = load atomic i64, ptr %7 monotonic, align 8
  store i64 %11, ptr %5, align 8
  br label %16

12:                                               ; preds = %2, %2
  %13 = load atomic i64, ptr %7 acquire, align 8
  store i64 %13, ptr %5, align 8
  br label %16

14:                                               ; preds = %2
  %15 = load atomic i64, ptr %7 seq_cst, align 8
  store i64 %15, ptr %5, align 8
  br label %16

16:                                               ; preds = %14, %12, %10
  %17 = load i64, ptr %5, align 8, !tbaa !9
  call void @llvm.lifetime.end.p0(i64 8, ptr %5) #10
  ret i64 %17
}

; Function Attrs: alwaysinline nounwind uwtable
define internal i64 @prng_range_u64(ptr noundef %0, i64 noundef %1) #1 {
  %3 = alloca i64, align 8
  %4 = alloca ptr, align 8
  %5 = alloca i64, align 8
  %6 = alloca i32, align 4
  %7 = alloca i64, align 8
  store ptr %0, ptr %4, align 8, !tbaa !21
  store i64 %1, ptr %5, align 8, !tbaa !9
  br label %8

8:                                                ; preds = %2
  br label %9

9:                                                ; preds = %8
  %10 = load i64, ptr %5, align 8, !tbaa !9
  %11 = icmp eq i64 %10, 1
  br i1 %11, label %12, label %13

12:                                               ; preds = %9
  store i64 0, ptr %3, align 8
  br label %27

13:                                               ; preds = %9
  call void @llvm.lifetime.start.p0(i64 4, ptr %6) #10
  %14 = load i64, ptr %5, align 8, !tbaa !9
  %15 = call i64 @pow2_ceil_u64(i64 noundef %14)
  %16 = call i32 @ffs_u64(i64 noundef %15)
  store i32 %16, ptr %6, align 4, !tbaa !17
  call void @llvm.lifetime.start.p0(i64 8, ptr %7) #10
  br label %17

17:                                               ; preds = %21, %13
  %18 = load ptr, ptr %4, align 8, !tbaa !21
  %19 = load i32, ptr %6, align 4, !tbaa !17
  %20 = call i64 @prng_lg_range_u64(ptr noundef %18, i32 noundef %19)
  store i64 %20, ptr %7, align 8, !tbaa !9
  br label %21

21:                                               ; preds = %17
  %22 = load i64, ptr %7, align 8, !tbaa !9
  %23 = load i64, ptr %5, align 8, !tbaa !9
  %24 = icmp uge i64 %22, %23
  br i1 %24, label %17, label %25

25:                                               ; preds = %21
  %26 = load i64, ptr %7, align 8, !tbaa !9
  store i64 %26, ptr %3, align 8
  call void @llvm.lifetime.end.p0(i64 8, ptr %7) #10
  call void @llvm.lifetime.end.p0(i64 4, ptr %6) #10
  br label %27

27:                                               ; preds = %25, %12
  %28 = load i64, ptr %3, align 8
  ret i64 %28
}

; Function Attrs: inlinehint nounwind uwtable
define internal i64 @decay_ms_read(ptr noundef %0) #5 {
  %2 = alloca ptr, align 8
  store ptr %0, ptr %2, align 8, !tbaa !3
  %3 = load ptr, ptr %2, align 8, !tbaa !3
  %4 = getelementptr inbounds nuw %struct.decay_s, ptr %3, i32 0, i32 2
  %5 = call i64 @atomic_load_zd(ptr noundef %4, i32 noundef 0)
  ret i64 %5
}

; Function Attrs: nounwind uwtable
define internal void @duckdb_je_decay_deadline_init(ptr noundef %0) #0 {
  %2 = alloca ptr, align 8
  %3 = alloca %struct.nstime_t, align 8
  store ptr %0, ptr %2, align 8, !tbaa !3
  %4 = load ptr, ptr %2, align 8, !tbaa !3
  %5 = getelementptr inbounds nuw %struct.decay_s, ptr %4, i32 0, i32 6
  %6 = load ptr, ptr %2, align 8, !tbaa !3
  %7 = getelementptr inbounds nuw %struct.decay_s, ptr %6, i32 0, i32 4
  call void @duckdb_je_nstime_copy(ptr noundef %5, ptr noundef %7)
  %8 = load ptr, ptr %2, align 8, !tbaa !3
  %9 = getelementptr inbounds nuw %struct.decay_s, ptr %8, i32 0, i32 6
  %10 = load ptr, ptr %2, align 8, !tbaa !3
  %11 = getelementptr inbounds nuw %struct.decay_s, ptr %10, i32 0, i32 3
  call void @duckdb_je_nstime_add(ptr noundef %9, ptr noundef %11)
  %12 = load ptr, ptr %2, align 8, !tbaa !3
  %13 = call i64 @decay_ms_read(ptr noundef %12)
  %14 = icmp sgt i64 %13, 0
  br i1 %14, label %15, label %24

15:                                               ; preds = %1
  call void @llvm.lifetime.start.p0(i64 8, ptr %3) #10
  %16 = load ptr, ptr %2, align 8, !tbaa !3
  %17 = getelementptr inbounds nuw %struct.decay_s, ptr %16, i32 0, i32 5
  %18 = load ptr, ptr %2, align 8, !tbaa !3
  %19 = getelementptr inbounds nuw %struct.decay_s, ptr %18, i32 0, i32 3
  %20 = call i64 @duckdb_je_nstime_ns(ptr noundef %19)
  %21 = call i64 @prng_range_u64(ptr noundef %17, i64 noundef %20)
  call void @duckdb_je_nstime_init(ptr noundef %3, i64 noundef %21)
  %22 = load ptr, ptr %2, align 8, !tbaa !3
  %23 = getelementptr inbounds nuw %struct.decay_s, ptr %22, i32 0, i32 6
  call void @duckdb_je_nstime_add(ptr noundef %23, ptr noundef %3)
  call void @llvm.lifetime.end.p0(i64 8, ptr %3) #10
  br label %24

24:                                               ; preds = %15, %1
  ret void
}