; Function Attrs: nounwind uwtable
define internal fastcc void @duckdb_je_decay_deadline_init(ptr noundef %0) unnamed_addr #0 {
  %2 = alloca %struct.nstime_t, align 8
  %3 = getelementptr inbounds nuw i8, ptr %0, i64 152
  %4 = getelementptr inbounds nuw i8, ptr %0, i64 136
  tail call void @duckdb_je_nstime_copy(ptr noundef nonnull %3, ptr noundef nonnull %4) #9
  %5 = getelementptr inbounds nuw i8, ptr %0, i64 128
  tail call void @duckdb_je_nstime_add(ptr noundef nonnull %3, ptr noundef nonnull %5) #9
  %6 = getelementptr inbounds nuw i8, ptr %0, i64 120
  %7 = load atomic i64, ptr %6 monotonic, align 8
  %8 = icmp sgt i64 %7, 0
  br i1 %8, label %9, label %24

9:                                                ; preds = %1
  call void @llvm.lifetime.start.p0(i64 8, ptr nonnull %2) #9
  %10 = getelementptr inbounds nuw i8, ptr %0, i64 144
  %11 = tail call i64 @duckdb_je_nstime_ns(ptr noundef nonnull %5) #9
  switch i64 %11, label %12 [
    i64 1, label %prng_range_u64.exit
    i64 0, label %pow2_ceil_u64.exit
  ], !prof !11

12:                                               ; preds = %9
  %13 = add i64 %11, -1
  %14 = tail call range(i64 0, 65) i64 @llvm.ctlz.i64(i64 range(i64 1, -1) %13, i1 true)
  %narrow.i = sub nuw nsw i64 64, %14
  %15 = shl nuw i64 1, %narrow.i
  br label %pow2_ceil_u64.exit

pow2_ceil_u64.exit:                               ; preds = %9, %12
  %.0.i8 = phi i64 [ %15, %12 ], [ %11, %9 ]
  %16 = icmp ne i64 %.0.i8, 0
  tail call void @llvm.assume(i1 %16)
  %17 = tail call range(i64 0, 65) i64 @llvm.cttz.i64(i64 %.0.i8, i1 true)
  %18 = sub nuw nsw i64 64, %17
  %.promoted = load i64, ptr %10, align 8, !tbaa !12
  br label %19

19:                                               ; preds = %19, %pow2_ceil_u64.exit
  %20 = phi i64 [ %22, %19 ], [ %.promoted, %pow2_ceil_u64.exit ]
  %21 = mul i64 %20, 6364136223846793005
  %22 = add i64 %21, 1442695040888963407
  %23 = lshr i64 %22, %18
  %.not.i = icmp ult i64 %23, %11
  br i1 %.not.i, label %prng_range_u64.exit.loopexit, label %19

prng_range_u64.exit.loopexit:                     ; preds = %19
  store i64 %22, ptr %10, align 8, !tbaa !12
  br label %prng_range_u64.exit

prng_range_u64.exit:                              ; preds = %prng_range_u64.exit.loopexit, %9
  %.0.i = phi i64 [ 0, %9 ], [ %23, %prng_range_u64.exit.loopexit ]
  call void @duckdb_je_nstime_init(ptr noundef nonnull %2, i64 noundef %.0.i) #9
  call void @duckdb_je_nstime_add(ptr noundef nonnull %3, ptr noundef nonnull %2) #9
  call void @llvm.lifetime.end.p0(i64 8, ptr nonnull %2) #9
  br label %24

24:                                               ; preds = %prng_range_u64.exit, %1
  ret void
}